; Function Attrs: mustprogress sspstrong uwtable
define noundef nonnull align 8 dereferenceable(17) ptr @_ZN4FLAC8Metadata9PrototypeaSEPK20FLAC__StreamMetadata(ptr noundef nonnull returned align 8 dereferenceable(17) %this, ptr noundef %object) local_unnamed_addr #0 align 2 {
entry:
  %vtable = load ptr, ptr %this, align 8
  %0 = load ptr, ptr %vtable, align 8
  tail call void %0(ptr noundef nonnull align 8 dereferenceable(17) %this)
  %is_reference_ = getelementptr inbounds i8, ptr %this, i64 16
  store i8 0, ptr %is_reference_, align 8
  %call = tail call ptr @FLAC__metadata_object_clone(ptr noundef %object)
  %object_ = getelementptr inbounds i8, ptr %this, i64 8
  store ptr %call, ptr %object_, align 8
  ret ptr %this
}